target datalayout = "e-m:e-p270:32:32-p271:32:32-p272:64:64-i64:64-i128:128-f80:128-n8:16:32:64-S128"
target triple = "x86_64-pc-linux-gnu"

%"class.cv::utils::trace::details::Region" = type <{ ptr, i32, [4 x i8] }>
%"class.cv::Range" = type { i32, i32 }
%"class.cv::ParallelLoopBody" = type { ptr }
%"struct.cv::hal::cpu_baseline::(anonymous namespace)::HLS2RGB_f" = type { i32, i32, float }
%"class.cv::impl::(anonymous namespace)::CvtColorLoop_Invoker.7" = type { %"class.cv::ParallelLoopBody", ptr, i64, ptr, i64, i32, ptr }

; Function Attrs: mustprogress nounwind uwtable
define internal noundef i32 @_ZL7cvFloorf(float noundef %0) #2 {
  %2 = alloca float, align 4
  store float %0, ptr %2, align 4
  %3 = load float, ptr %2, align 4
  %4 = call float @llvm.floor.f32(float %3)
  %5 = fptosi float %4 to i32
  ret i32 %5
}

; Function Attrs: mustprogress uwtable
define internal void @_ZN2cv3hal12cpu_baseline12_GLOBAL__N_124ComputeSectorAndClampedHERfRi(ptr noundef nonnull align 4 dereferenceable(4) %0, ptr noundef nonnull align 4 dereferenceable(4) %1) #0 {
  %3 = alloca ptr, align 8
  %4 = alloca ptr, align 8
  store ptr %0, ptr %3, align 8
  store ptr %1, ptr %4, align 8
  %5 = load ptr, ptr %3, align 8
  %6 = load float, ptr %5, align 4
  %7 = call noundef i32 @_ZL7cvFloorf(float noundef %6)
  %8 = load ptr, ptr %4, align 8
  store i32 %7, ptr %8, align 4
  %9 = load ptr, ptr %4, align 8
  %10 = load i32, ptr %9, align 4
  %11 = sitofp i32 %10 to float
  %12 = load ptr, ptr %3, align 8
  %13 = load float, ptr %12, align 4
  %14 = fsub float %13, %11
  store float %14, ptr %12, align 4
  %15 = load ptr, ptr %4, align 8
  %16 = load i32, ptr %15, align 4
  %17 = srem i32 %16, 6
  store i32 %17, ptr %15, align 4
  %18 = load ptr, ptr %4, align 8
  %19 = load i32, ptr %18, align 4
  %20 = icmp slt i32 %19, 0
  %21 = select i1 %20, i32 6, i32 0
  %22 = load ptr, ptr %4, align 8
  %23 = load i32, ptr %22, align 4
  %24 = add nsw i32 %23, %21
  store i32 %24, ptr %22, align 4
  ret void
}

; Function Attrs: mustprogress nounwind uwtable
define internal noundef float @_ZN2cv4impl12_GLOBAL__N_112ColorChannelIfE3maxEv() #2 align 2 {
  ret float 1.000000e+00
}

; Function Attrs: mustprogress uwtable
define internal void @_ZNK2cv3hal12cpu_baseline12_GLOBAL__N_19HLS2RGB_fclEPKfPfi(ptr noundef nonnull align 4 dereferenceable(12) %0, ptr noundef %1, ptr noundef %2, i32 noundef %3) #0 align 2 personality ptr @__gxx_personality_v0 {
  %5 = alloca ptr, align 8
  %6 = alloca ptr, align 8
  %7 = alloca ptr, align 8
  %8 = alloca i32, align 4
  %9 = alloca %"class.cv::utils::trace::details::Region", align 8
  %10 = alloca i32, align 4
  %11 = alloca i32, align 4
  %12 = alloca i32, align 4
  %13 = alloca float, align 4
  %14 = alloca float, align 4
  %15 = alloca float, align 4
  %16 = alloca float, align 4
  %17 = alloca float, align 4
  %18 = alloca float, align 4
  %19 = alloca float, align 4
  %20 = alloca [4 x float], align 16
  %21 = alloca i32, align 4
  %22 = alloca float, align 4
  %23 = alloca float, align 4
  %24 = alloca ptr, align 8
  %25 = alloca i32, align 4
  store ptr %0, ptr %5, align 8
  store ptr %1, ptr %6, align 8
  store ptr %2, ptr %7, align 8
  store i32 %3, ptr %8, align 4
  %26 = load ptr, ptr %5, align 8
  call void @_ZN2cv5utils5trace7details6RegionC1ERKNS3_21LocationStaticStorageE(ptr noundef nonnull align 8 dereferenceable(12) %9, ptr noundef nonnull align 8 dereferenceable(32) @_ZZNK2cv3hal12cpu_baseline12_GLOBAL__N_19HLS2RGB_fclEPKfPfiE26__cv_trace_location_fn1014)
  store i32 0, ptr %10, align 4
  %27 = getelementptr inbounds %"struct.cv::hal::cpu_baseline::(anonymous namespace)::HLS2RGB_f", ptr %26, i32 0, i32 1
  %28 = load i32, ptr %27, align 4
  store i32 %28, ptr %11, align 4
  %29 = getelementptr inbounds %"struct.cv::hal::cpu_baseline::(anonymous namespace)::HLS2RGB_f", ptr %26, i32 0, i32 0
  %30 = load i32, ptr %29, align 4
  store i32 %30, ptr %12, align 4
  %31 = call noundef float @_ZN2cv4impl12_GLOBAL__N_112ColorChannelIfE3maxEv()
  store float %31, ptr %13, align 4
  br label %32

32:                                               ; preds = %146, %4
  %33 = load i32, ptr %10, align 4
  %34 = load i32, ptr %8, align 4
  %35 = icmp slt i32 %33, %34
  br i1 %35, label %36, label %155

36:                                               ; preds = %32
  %37 = load ptr, ptr %6, align 8
  %38 = getelementptr inbounds float, ptr %37, i64 0
  %39 = load float, ptr %38, align 4
  store float %39, ptr %14, align 4
  %40 = load ptr, ptr %6, align 8
  %41 = getelementptr inbounds float, ptr %40, i64 1
  %42 = load float, ptr %41, align 4
  store float %42, ptr %15, align 4
  %43 = load ptr, ptr %6, align 8
  %44 = getelementptr inbounds float, ptr %43, i64 2
  %45 = load float, ptr %44, align 4
  store float %45, ptr %16, align 4
  %46 = load float, ptr %16, align 4
  %47 = fcmp oeq float %46, 0.000000e+00
  br i1 %47, label %48, label %50

48:                                               ; preds = %36
  %49 = load float, ptr %15, align 4
  store float %49, ptr %19, align 4
  store float %49, ptr %18, align 4
  store float %49, ptr %17, align 4
  br label %124

50:                                               ; preds = %36
  %51 = load float, ptr %15, align 4
  %52 = fcmp ole float %51, 5.000000e-01
  br i1 %52, label %53, label %58

53:                                               ; preds = %50
  %54 = load float, ptr %15, align 4
  %55 = load float, ptr %16, align 4
  %56 = fadd float 1.000000e+00, %55
  %57 = fmul float %54, %56
  br label %66

58:                                               ; preds = %50
  %59 = load float, ptr %15, align 4
  %60 = load float, ptr %16, align 4
  %61 = fadd float %59, %60
  %62 = load float, ptr %15, align 4
  %63 = load float, ptr %16, align 4
  %64 = fneg float %62
  %65 = call float @llvm.fmuladd.f32(float %64, float %63, float %61)
  br label %66

66:                                               ; preds = %58, %53
  %67 = phi float [ %57, %53 ], [ %65, %58 ]
  store float %67, ptr %22, align 4
  %68 = load float, ptr %15, align 4
  %69 = load float, ptr %22, align 4
  %70 = fneg float %69
  %71 = call float @llvm.fmuladd.f32(float 2.000000e+00, float %68, float %70)
  store float %71, ptr %23, align 4
  %72 = getelementptr inbounds %"struct.cv::hal::cpu_baseline::(anonymous namespace)::HLS2RGB_f", ptr %26, i32 0, i32 2
  %73 = load float, ptr %72, align 4
  %74 = load float, ptr %14, align 4
  %75 = fmul float %74, %73
  store float %75, ptr %14, align 4
  invoke void @_ZN2cv3hal12cpu_baseline12_GLOBAL__N_124ComputeSectorAndClampedHERfRi(ptr noundef nonnull align 4 dereferenceable(4) %14, ptr noundef nonnull align 4 dereferenceable(4) %21)
          to label %76 unwind label %120

76:                                               ; preds = %66
  %77 = load float, ptr %22, align 4
  %78 = getelementptr inbounds [4 x float], ptr %20, i64 0, i64 0
  store float %77, ptr %78, align 16
  %79 = load float, ptr %23, align 4
  %80 = getelementptr inbounds [4 x float], ptr %20, i64 0, i64 1
  store float %79, ptr %80, align 4
  %81 = load float, ptr %23, align 4
  %82 = load float, ptr %22, align 4
  %83 = load float, ptr %23, align 4
  %84 = fsub float %82, %83
  %85 = load float, ptr %14, align 4
  %86 = fsub float 1.000000e+00, %85
  %87 = call float @llvm.fmuladd.f32(float %84, float %86, float %81)
  %88 = getelementptr inbounds [4 x float], ptr %20, i64 0, i64 2
  store float %87, ptr %88, align 8
  %89 = load float, ptr %23, align 4
  %90 = load float, ptr %22, align 4
  %91 = load float, ptr %23, align 4
  %92 = fsub float %90, %91
  %93 = load float, ptr %14, align 4
  %94 = call float @llvm.fmuladd.f32(float %92, float %93, float %89)
  %95 = getelementptr inbounds [4 x float], ptr %20, i64 0, i64 3
  store float %94, ptr %95, align 4
  %96 = load i32, ptr %21, align 4
  %97 = sext i32 %96 to i64
  %98 = getelementptr inbounds [6 x [3 x i32]], ptr @_ZZNK2cv3hal12cpu_baseline12_GLOBAL__N_19HLS2RGB_fclEPKfPfiE11sector_data, i64 0, i64 %97
  %99 = getelementptr inbounds [3 x i32], ptr %98, i64 0, i64 0
  %100 = load i32, ptr %99, align 4
  %101 = sext i32 %100 to i64
  %102 = getelementptr inbounds [4 x float], ptr %20, i64 0, i64 %101
  %103 = load float, ptr %102, align 4
  store float %103, ptr %17, align 4
  %104 = load i32, ptr %21, align 4
  %105 = sext i32 %104 to i64
  %106 = getelementptr inbounds [6 x [3 x i32]], ptr @_ZZNK2cv3hal12cpu_baseline12_GLOBAL__N_19HLS2RGB_fclEPKfPfiE11sector_data, i64 0, i64 %105
  %107 = getelementptr inbounds [3 x i32], ptr %106, i64 0, i64 1
  %108 = load i32, ptr %107, align 4
  %109 = sext i32 %108 to i64
  %110 = getelementptr inbounds [4 x float], ptr %20, i64 0, i64 %109
  %111 = load float, ptr %110, align 4
  store float %111, ptr %18, align 4
  %112 = load i32, ptr %21, align 4
  %113 = sext i32 %112 to i64
  %114 = getelementptr inbounds [6 x [3 x i32]], ptr @_ZZNK2cv3hal12cpu_baseline12_GLOBAL__N_19HLS2RGB_fclEPKfPfiE11sector_data, i64 0, i64 %113
  %115 = getelementptr inbounds [3 x i32], ptr %114, i64 0, i64 2
  %116 = load i32, ptr %115, align 4
  %117 = sext i32 %116 to i64
  %118 = getelementptr inbounds [4 x float], ptr %20, i64 0, i64 %117
  %119 = load float, ptr %118, align 4
  store float %119, ptr %19, align 4
  br label %124

120:                                              ; preds = %66
  %121 = landingpad { ptr, i32 }
          cleanup
  %122 = extractvalue { ptr, i32 } %121, 0
  store ptr %122, ptr %24, align 8
  %123 = extractvalue { ptr, i32 } %121, 1
  store i32 %123, ptr %25, align 4
  call void @_ZN2cv5utils5trace7details6RegionD2Ev(ptr noundef nonnull align 8 dereferenceable(12) %9) #5
  br label %156

124:                                              ; preds = %76, %48
  %125 = load float, ptr %17, align 4
  %126 = load ptr, ptr %7, align 8
  %127 = load i32, ptr %11, align 4
  %128 = sext i32 %127 to i64
  %129 = getelementptr inbounds float, ptr %126, i64 %128
  store float %125, ptr %129, align 4
  %130 = load float, ptr %18, align 4
  %131 = load ptr, ptr %7, align 8
  %132 = getelementptr inbounds float, ptr %131, i64 1
  store float %130, ptr %132, align 4
  %133 = load float, ptr %19, align 4
  %134 = load ptr, ptr %7, align 8
  %135 = load i32, ptr %11, align 4
  %136 = xor i32 %135, 2
  %137 = sext i32 %136 to i64
  %138 = getelementptr inbounds float, ptr %134, i64 %137
  store float %133, ptr %138, align 4
  %139 = load i32, ptr %12, align 4
  %140 = icmp eq i32 %139, 4
  br i1 %140, label %141, label %145

141:                                              ; preds = %124
  %142 = load float, ptr %13, align 4
  %143 = load ptr, ptr %7, align 8
  %144 = getelementptr inbounds float, ptr %143, i64 3
  store float %142, ptr %144, align 4
  br label %145

145:                                              ; preds = %141, %124
  br label %146

146:                                              ; preds = %145
  %147 = load i32, ptr %10, align 4
  %148 = add nsw i32 %147, 1
  store i32 %148, ptr %10, align 4
  %149 = load ptr, ptr %6, align 8
  %150 = getelementptr inbounds float, ptr %149, i64 3
  store ptr %150, ptr %6, align 8
  %151 = load i32, ptr %12, align 4
  %152 = load ptr, ptr %7, align 8
  %153 = sext i32 %151 to i64
  %154 = getelementptr inbounds float, ptr %152, i64 %153
  store ptr %154, ptr %7, align 8
  br label %32, !llvm.loop !25

155:                                              ; preds = %32
  call void @_ZN2cv5utils5trace7details6RegionD2Ev(ptr noundef nonnull align 8 dereferenceable(12) %9) #5
  ret void

156:                                              ; preds = %120
  %157 = load ptr, ptr %24, align 8
  %158 = load i32, ptr %25, align 4
  %159 = insertvalue { ptr, i32 } poison, ptr %157, 0
  %160 = insertvalue { ptr, i32 } %159, i32 %158, 1
  resume { ptr, i32 } %160
}

; Function Attrs: mustprogress uwtable
define internal void @_ZNK2cv4impl12_GLOBAL__N_120CvtColorLoop_InvokerINS_3hal12cpu_baseline12_GLOBAL__N_19HLS2RGB_fEEclERKNS_5RangeE(ptr noundef nonnull align 8 dereferenceable(56) %0, ptr noundef nonnull align 4 dereferenceable(8) %1) unnamed_addr #0 align 2 personality ptr @__gxx_personality_v0 {
  %3 = alloca ptr, align 8
  %4 = alloca ptr, align 8
  %5 = alloca %"class.cv::utils::trace::details::Region", align 8
  %6 = alloca ptr, align 8
  %7 = alloca ptr, align 8
  %8 = alloca i32, align 4
  %9 = alloca ptr, align 8
  %10 = alloca i32, align 4
  store ptr %0, ptr %3, align 8
  store ptr %1, ptr %4, align 8
  %11 = load ptr, ptr %3, align 8
  call void @_ZN2cv5utils5trace7details6RegionC1ERKNS3_21LocationStaticStorageE(ptr noundef nonnull align 8 dereferenceable(12) %5, ptr noundef nonnull align 8 dereferenceable(32) @_ZZNK2cv4impl12_GLOBAL__N_120CvtColorLoop_InvokerINS_3hal12cpu_baseline12_GLOBAL__N_19HLS2RGB_fEEclERKNS_5RangeEE25__cv_trace_location_fn146)
  %12 = getelementptr inbounds %"class.cv::impl::(anonymous namespace)::CvtColorLoop_Invoker.7", ptr %11, i32 0, i32 1
  %13 = load ptr, ptr %12, align 8
  %14 = load ptr, ptr %4, align 8
  %15 = getelementptr inbounds %"class.cv::Range", ptr %14, i32 0, i32 0
  %16 = load i32, ptr %15, align 4
  %17 = sext i32 %16 to i64
  %18 = getelementptr inbounds %"class.cv::impl::(anonymous namespace)::CvtColorLoop_Invoker.7", ptr %11, i32 0, i32 2
  %19 = load i64, ptr %18, align 8
  %20 = mul i64 %17, %19
  %21 = getelementptr inbounds i8, ptr %13, i64 %20
  store ptr %21, ptr %6, align 8
  %22 = getelementptr inbounds %"class.cv::impl::(anonymous namespace)::CvtColorLoop_Invoker.7", ptr %11, i32 0, i32 3
  %23 = load ptr, ptr %22, align 8
  %24 = load ptr, ptr %4, align 8
  %25 = getelementptr inbounds %"class.cv::Range", ptr %24, i32 0, i32 0
  %26 = load i32, ptr %25, align 4
  %27 = sext i32 %26 to i64
  %28 = getelementptr inbounds %"class.cv::impl::(anonymous namespace)::CvtColorLoop_Invoker.7", ptr %11, i32 0, i32 4
  %29 = load i64, ptr %28, align 8
  %30 = mul i64 %27, %29
  %31 = getelementptr inbounds i8, ptr %23, i64 %30
  store ptr %31, ptr %7, align 8
  %32 = load ptr, ptr %4, align 8
  %33 = getelementptr inbounds %"class.cv::Range", ptr %32, i32 0, i32 0
  %34 = load i32, ptr %33, align 4
  store i32 %34, ptr %8, align 4
  br label %35

35:                                               ; preds = %49, %2
  %36 = load i32, ptr %8, align 4
  %37 = load ptr, ptr %4, align 8
  %38 = getelementptr inbounds %"class.cv::Range", ptr %37, i32 0, i32 1
  %39 = load i32, ptr %38, align 4
  %40 = icmp slt i32 %36, %39
  br i1 %40, label %41, label %64

41:                                               ; preds = %35
  %42 = getelementptr inbounds %"class.cv::impl::(anonymous namespace)::CvtColorLoop_Invoker.7", ptr %11, i32 0, i32 6
  %43 = load ptr, ptr %42, align 8
  %44 = load ptr, ptr %6, align 8
  %45 = load ptr, ptr %7, align 8
  %46 = getelementptr inbounds %"class.cv::impl::(anonymous namespace)::CvtColorLoop_Invoker.7", ptr %11, i32 0, i32 5
  %47 = load i32, ptr %46, align 8
  invoke void @_ZNK2cv3hal12cpu_baseline12_GLOBAL__N_19HLS2RGB_fclEPKfPfi(ptr noundef nonnull align 4 dereferenceable(12) %43, ptr noundef %44, ptr noundef %45, i32 noundef %47)
          to label %48 unwind label %60

48:                                               ; preds = %41
  br label %49

49:                                               ; preds = %48
  %50 = load i32, ptr %8, align 4
  %51 = add nsw i32 %50, 1
  store i32 %51, ptr %8, align 4
  %52 = getelementptr inbounds %"class.cv::impl::(anonymous namespace)::CvtColorLoop_Invoker.7", ptr %11, i32 0, i32 2
  %53 = load i64, ptr %52, align 8
  %54 = load ptr, ptr %6, align 8
  %55 = getelementptr inbounds i8, ptr %54, i64 %53
  store ptr %55, ptr %6, align 8
  %56 = getelementptr inbounds %"class.cv::impl::(anonymous namespace)::CvtColorLoop_Invoker.7", ptr %11, i32 0, i32 4
  %57 = load i64, ptr %56, align 8
  %58 = load ptr, ptr %7, align 8
  %59 = getelementptr inbounds i8, ptr %58, i64 %57
  store ptr %59, ptr %7, align 8
  br label %35, !llvm.loop !26

60:                                               ; preds = %41
  %61 = landingpad { ptr, i32 }
          cleanup
  %62 = extractvalue { ptr, i32 } %61, 0
  store ptr %62, ptr %9, align 8
  %63 = extractvalue { ptr, i32 } %61, 1
  store i32 %63, ptr %10, align 4
  call void @_ZN2cv5utils5trace7details6RegionD2Ev(ptr noundef nonnull align 8 dereferenceable(12) %5) #5
  br label %65

64:                                               ; preds = %35
  call void @_ZN2cv5utils5trace7details6RegionD2Ev(ptr noundef nonnull align 8 dereferenceable(12) %5) #5
  ret void

65:                                               ; preds = %60
  %66 = load ptr, ptr %9, align 8
  %67 = load i32, ptr %10, align 4
  %68 = insertvalue { ptr, i32 } poison, ptr %66, 0
  %69 = insertvalue { ptr, i32 } %68, i32 %67, 1
  resume { ptr, i32 } %69
}