; Function Attrs: mustprogress uwtable
define internal void @_ZNK2cv4impl12_GLOBAL__N_120CvtColorLoop_InvokerINS_3hal12cpu_baseline12_GLOBAL__N_19HLS2RGB_fEEclERKNS_5RangeE(ptr nocapture noundef nonnull readonly align 8 dereferenceable(56) %0, ptr nocapture noundef nonnull readonly align 4 dereferenceable(8) %1) unnamed_addr #0 align 2 personality ptr @__gxx_personality_v0 {
  %3 = alloca %"class.cv::utils::trace::details::Region", align 8
  %4 = alloca [4 x float], align 16
  %5 = alloca %"class.cv::utils::trace::details::Region", align 8
  call void @_ZN2cv5utils5trace7details6RegionC1ERKNS3_21LocationStaticStorageE(ptr noundef nonnull align 8 dereferenceable(12) %5, ptr noundef nonnull align 8 dereferenceable(32) @_ZZNK2cv4impl12_GLOBAL__N_120CvtColorLoop_InvokerINS_3hal12cpu_baseline12_GLOBAL__N_19HLS2RGB_fEEclERKNS_5RangeEE25__cv_trace_location_fn146)
  %6 = load i32, ptr %1, align 4
  %7 = getelementptr inbounds i8, ptr %0, i64 16
  %8 = getelementptr inbounds i8, ptr %0, i64 32
  %9 = getelementptr inbounds i8, ptr %1, i64 4
  %10 = load i32, ptr %9, align 4
  %11 = icmp slt i32 %6, %10
  br i1 %11, label %.lr.ph, label %._crit_edge

.lr.ph:                                           ; preds = %2
  %12 = getelementptr inbounds i8, ptr %0, i64 24
  %13 = load ptr, ptr %12, align 8
  %14 = load i64, ptr %8, align 8
  %15 = sext i32 %6 to i64
  %16 = mul i64 %14, %15
  %17 = getelementptr inbounds i8, ptr %13, i64 %16
  %18 = getelementptr inbounds i8, ptr %0, i64 8
  %19 = load ptr, ptr %18, align 8
  %20 = load i64, ptr %7, align 8
  %21 = mul i64 %20, %15
  %22 = getelementptr inbounds i8, ptr %19, i64 %21
  %23 = getelementptr inbounds i8, ptr %0, i64 48
  %24 = getelementptr inbounds i8, ptr %0, i64 40
  %25 = getelementptr inbounds i8, ptr %4, i64 4
  %26 = getelementptr inbounds i8, ptr %4, i64 8
  %27 = getelementptr inbounds i8, ptr %3, i64 8
  br label %28

28:                                               ; preds = %.lr.ph, %111
  %.016 = phi ptr [ %22, %.lr.ph ], [ %114, %111 ]
  %.01215 = phi ptr [ %17, %.lr.ph ], [ %116, %111 ]
  %.01314 = phi i32 [ %6, %.lr.ph ], [ %112, %111 ]
  %29 = load ptr, ptr %23, align 8
  %30 = load i32, ptr %24, align 8
  call void @llvm.lifetime.start.p0(i64 16, ptr nonnull %3)
  call void @llvm.lifetime.start.p0(i64 16, ptr nonnull %4)
  invoke void @_ZN2cv5utils5trace7details6RegionC1ERKNS3_21LocationStaticStorageE(ptr noundef nonnull align 8 dereferenceable(12) %3, ptr noundef nonnull align 8 dereferenceable(32) @_ZZNK2cv3hal12cpu_baseline12_GLOBAL__N_19HLS2RGB_fclEPKfPfiE26__cv_trace_location_fn1014)
          to label %.noexc unwind label %119

.noexc:                                           ; preds = %28
  %31 = icmp sgt i32 %30, 0
  br i1 %31, label %.lr.ph.i, label %._crit_edge.i

.lr.ph.i:                                         ; preds = %.noexc
  %32 = load i32, ptr %29, align 4
  %33 = getelementptr inbounds i8, ptr %29, i64 4
  %34 = load i32, ptr %33, align 4
  %35 = getelementptr inbounds i8, ptr %29, i64 8
  %36 = sext i32 %34 to i64
  %37 = xor i32 %34, 2
  %38 = sext i32 %37 to i64
  %39 = icmp eq i32 %32, 4
  %40 = sext i32 %32 to i64
  br label %41

41:                                               ; preds = %102, %.lr.ph.i
  %.054.i = phi ptr [ %.016, %.lr.ph.i ], [ %104, %102 ]
  %.04153.i = phi ptr [ %.01215, %.lr.ph.i ], [ %105, %102 ]
  %.04252.i = phi i32 [ 0, %.lr.ph.i ], [ %103, %102 ]
  %42 = load float, ptr %.054.i, align 4
  %43 = getelementptr inbounds i8, ptr %.054.i, i64 4
  %44 = load float, ptr %43, align 4
  %45 = getelementptr inbounds i8, ptr %.054.i, i64 8
  %46 = load float, ptr %45, align 4
  %47 = fcmp oeq float %46, 0.000000e+00
  br i1 %47, label %96, label %48

48:                                               ; preds = %41
  %49 = fcmp ugt float %44, 5.000000e-01
  br i1 %49, label %53, label %50

50:                                               ; preds = %48
  %51 = fadd float %46, 1.000000e+00
  %52 = fmul float %44, %51
  br label %57

53:                                               ; preds = %48
  %54 = fadd float %44, %46
  %55 = fneg float %44
  %56 = call float @llvm.fmuladd.f32(float %55, float %46, float %54)
  br label %57

57:                                               ; preds = %53, %50
  %58 = phi float [ %52, %50 ], [ %56, %53 ]
  %59 = load float, ptr %35, align 4
  %60 = fmul float %42, %59
  %61 = call float @llvm.floor.f32(float %60)
  %62 = fptosi float %61 to i32
  %63 = sitofp i32 %62 to float
  %64 = srem i32 %62, 6
  %65 = icmp slt i32 %64, 0
  %66 = select i1 %65, i32 6, i32 0
  %67 = add nsw i32 %66, %64
  %68 = fneg float %58
  %69 = call float @llvm.fmuladd.f32(float %44, float 2.000000e+00, float %68)
  store float %58, ptr %4, align 16
  store float %69, ptr %25, align 4
  %70 = fsub float %58, %69
  %71 = fsub float %60, %63
  %72 = fsub float 1.000000e+00, %71
  %73 = insertelement <2 x float> poison, float %70, i64 0
  %74 = shufflevector <2 x float> %73, <2 x float> poison, <2 x i32> zeroinitializer
  %75 = insertelement <2 x float> poison, float %72, i64 0
  %76 = insertelement <2 x float> %75, float %71, i64 1
  %77 = insertelement <2 x float> poison, float %69, i64 0
  %78 = shufflevector <2 x float> %77, <2 x float> poison, <2 x i32> zeroinitializer
  %79 = call <2 x float> @llvm.fmuladd.v2f32(<2 x float> %74, <2 x float> %76, <2 x float> %78)
  store <2 x float> %79, ptr %26, align 8
  %80 = sext i32 %67 to i64
  %81 = getelementptr inbounds [6 x [3 x i32]], ptr @_ZZNK2cv3hal12cpu_baseline12_GLOBAL__N_19HLS2RGB_fclEPKfPfiE11sector_data, i64 0, i64 %80
  %82 = load i32, ptr %81, align 4
  %83 = sext i32 %82 to i64
  %84 = getelementptr inbounds [4 x float], ptr %4, i64 0, i64 %83
  %85 = load float, ptr %84, align 4
  %86 = getelementptr inbounds i8, ptr %81, i64 4
  %87 = load i32, ptr %86, align 4
  %88 = sext i32 %87 to i64
  %89 = getelementptr inbounds [4 x float], ptr %4, i64 0, i64 %88
  %90 = load float, ptr %89, align 4
  %91 = getelementptr inbounds i8, ptr %81, i64 8
  %92 = load i32, ptr %91, align 4
  %93 = sext i32 %92 to i64
  %94 = getelementptr inbounds [4 x float], ptr %4, i64 0, i64 %93
  %95 = load float, ptr %94, align 4
  br label %96

96:                                               ; preds = %57, %41
  %.045.i = phi float [ %90, %57 ], [ %44, %41 ]
  %.044.i = phi float [ %95, %57 ], [ %44, %41 ]
  %.043.i = phi float [ %85, %57 ], [ %44, %41 ]
  %97 = getelementptr inbounds float, ptr %.04153.i, i64 %36
  store float %.043.i, ptr %97, align 4
  %98 = getelementptr inbounds i8, ptr %.04153.i, i64 4
  store float %.045.i, ptr %98, align 4
  %99 = getelementptr inbounds float, ptr %.04153.i, i64 %38
  store float %.044.i, ptr %99, align 4
  br i1 %39, label %100, label %102

100:                                              ; preds = %96
  %101 = getelementptr inbounds i8, ptr %.04153.i, i64 12
  store float 1.000000e+00, ptr %101, align 4
  br label %102

102:                                              ; preds = %100, %96
  %103 = add nuw nsw i32 %.04252.i, 1
  %104 = getelementptr inbounds i8, ptr %.054.i, i64 12
  %105 = getelementptr inbounds float, ptr %.04153.i, i64 %40
  %exitcond.not.i = icmp eq i32 %103, %30
  br i1 %exitcond.not.i, label %._crit_edge.i, label %41, !llvm.loop !34

._crit_edge.i:                                    ; preds = %102, %.noexc
  %106 = load i32, ptr %27, align 8
  %.not.i.i = icmp eq i32 %106, 0
  br i1 %.not.i.i, label %111, label %107

107:                                              ; preds = %._crit_edge.i
  invoke void @_ZN2cv5utils5trace7details6Region7destroyEv(ptr noundef nonnull align 8 dereferenceable(12) %3)
          to label %111 unwind label %108

108:                                              ; preds = %107
  %109 = landingpad { ptr, i32 }
          catch ptr null
  %110 = extractvalue { ptr, i32 } %109, 0
  call void @__clang_call_terminate(ptr %110) #15
  unreachable

111:                                              ; preds = %107, %._crit_edge.i
  call void @llvm.lifetime.end.p0(i64 16, ptr nonnull %3)
  call void @llvm.lifetime.end.p0(i64 16, ptr nonnull %4)
  %112 = add nsw i32 %.01314, 1
  %113 = load i64, ptr %7, align 8
  %114 = getelementptr inbounds i8, ptr %.016, i64 %113
  %115 = load i64, ptr %8, align 8
  %116 = getelementptr inbounds i8, ptr %.01215, i64 %115
  %117 = load i32, ptr %9, align 4
  %118 = icmp slt i32 %112, %117
  br i1 %118, label %28, label %._crit_edge, !llvm.loop !38

119:                                              ; preds = %28
  %120 = landingpad { ptr, i32 }
          cleanup
  call void @_ZN2cv5utils5trace7details6RegionD2Ev(ptr noundef nonnull align 8 dereferenceable(12) %5) #14
  resume { ptr, i32 } %120

._crit_edge:                                      ; preds = %111, %2
  %121 = getelementptr inbounds i8, ptr %5, i64 8
  %122 = load i32, ptr %121, align 8
  %.not.i = icmp eq i32 %122, 0
  br i1 %.not.i, label %_ZN2cv5utils5trace7details6RegionD2Ev.exit, label %123

123:                                              ; preds = %._crit_edge
  invoke void @_ZN2cv5utils5trace7details6Region7destroyEv(ptr noundef nonnull align 8 dereferenceable(12) %5)
          to label %_ZN2cv5utils5trace7details6RegionD2Ev.exit unwind label %124

124:                                              ; preds = %123
  %125 = landingpad { ptr, i32 }
          catch ptr null
  %126 = extractvalue { ptr, i32 } %125, 0
  call void @__clang_call_terminate(ptr %126) #15
  unreachable

_ZN2cv5utils5trace7details6RegionD2Ev.exit:       ; preds = %._crit_edge, %123
  ret void
}